target datalayout = "e-m:e-p270:32:32-p271:32:32-p272:64:64-i64:64-i128:128-f80:128-n8:16:32:64-S128"
target triple = "x86_64-pc-linux-gnu"

@stun_tcp_handle = internal global ptr null, align 8

; Function Attrs: null_pointer_is_valid sspstrong uwtable
define internal i32 @dissect_stun_tcp(ptr noundef %0, ptr noundef %1, ptr noundef %2, ptr noundef %3) #0 {
  %5 = alloca ptr, align 8
  %6 = alloca ptr, align 8
  %7 = alloca ptr, align 8
  %8 = alloca ptr, align 8
  store ptr %0, ptr %5, align 8
  store ptr %1, ptr %6, align 8
  store ptr %2, ptr %7, align 8
  store ptr %3, ptr %8, align 8
  %9 = load ptr, ptr %5, align 8
  %10 = load ptr, ptr %6, align 8
  %11 = load ptr, ptr %7, align 8
  %12 = load ptr, ptr %8, align 8
  call void @tcp_dissect_pdus(ptr noundef %9, ptr noundef %10, ptr noundef %11, i1 noundef zeroext true, i32 noundef 4, ptr noundef @get_stun_message_len, ptr noundef @dissect_stun_tcp_pdu, ptr noundef %12)
  %13 = load ptr, ptr %5, align 8
  %14 = call i32 @tvb_reported_length(ptr noundef %13)
  ret i32 %14
}

; Function Attrs: null_pointer_is_valid sspstrong uwtable
define internal zeroext i1 @dissect_stun_heur_tcp(ptr noundef %0, ptr noundef %1, ptr noundef %2, ptr noundef %3) #0 {
  %5 = alloca i1, align 1
  %6 = alloca ptr, align 8
  %7 = alloca ptr, align 8
  %8 = alloca ptr, align 8
  %9 = alloca ptr, align 8
  %10 = alloca ptr, align 8
  %11 = alloca i32, align 4
  %12 = alloca i16, align 2
  %13 = alloca i32, align 4
  %14 = alloca i32, align 4
  %15 = alloca i32, align 4
  %16 = alloca i32, align 4
  store ptr %0, ptr %6, align 8
  store ptr %1, ptr %7, align 8
  store ptr %2, ptr %8, align 8
  store ptr %3, ptr %9, align 8
  call void @llvm.lifetime.start.p0(i64 8, ptr %10) #7
  call void @llvm.lifetime.start.p0(i64 4, ptr %11) #7
  call void @llvm.lifetime.start.p0(i64 2, ptr %12) #7
  call void @llvm.lifetime.start.p0(i64 4, ptr %13) #7
  call void @llvm.lifetime.start.p0(i64 4, ptr %14) #7
  call void @llvm.lifetime.start.p0(i64 4, ptr %15) #7
  %17 = load ptr, ptr %6, align 8
  %18 = call i32 @tvb_captured_length(ptr noundef %17)
  store i32 %18, ptr %11, align 4
  %19 = load i32, ptr %11, align 4
  %20 = icmp ult i32 %19, 4
  br i1 %20, label %21, label %22

21:                                               ; preds = %4
  store i1 false, ptr %5, align 1
  store i32 1, ptr %16, align 4
  br label %76

22:                                               ; preds = %4
  %23 = load ptr, ptr %6, align 8
  %24 = call i32 @tvb_reported_length(ptr noundef %23)
  store i32 %24, ptr %15, align 4
  store i32 0, ptr %14, align 4
  %25 = load i32, ptr %11, align 4
  %26 = icmp uge i32 %25, 10
  br i1 %26, label %27, label %32

27:                                               ; preds = %22
  %28 = load ptr, ptr %6, align 8
  %29 = call i32 @tvb_get_ntohl(ptr noundef %28, i32 noundef 6)
  %30 = icmp eq i32 %29, 554869826
  br i1 %30, label %31, label %32

31:                                               ; preds = %27
  store i32 2, ptr %14, align 4
  br label %32

32:                                               ; preds = %31, %27, %22
  %33 = load ptr, ptr %6, align 8
  %34 = load i32, ptr %14, align 4
  %35 = add i32 %34, 0
  %36 = call zeroext i16 @tvb_get_ntohs(ptr noundef %33, i32 noundef %35)
  store i16 %36, ptr %12, align 2
  %37 = load ptr, ptr %6, align 8
  %38 = load i32, ptr %14, align 4
  %39 = add i32 %38, 2
  %40 = call zeroext i16 @tvb_get_ntohs(ptr noundef %37, i32 noundef %39)
  %41 = zext i16 %40 to i32
  store i32 %41, ptr %13, align 4
  %42 = load i16, ptr %12, align 2
  %43 = zext i16 %42 to i32
  %44 = and i32 %43, 49152
  %45 = icmp ne i32 %44, 0
  br i1 %45, label %46, label %47

46:                                               ; preds = %32
  store i1 false, ptr %5, align 1
  store i32 1, ptr %16, align 4
  br label %76

47:                                               ; preds = %32
  %48 = load i32, ptr %11, align 4
  %49 = icmp ult i32 %48, 20
  br i1 %49, label %50, label %51

50:                                               ; preds = %47
  store i1 false, ptr %5, align 1
  store i32 1, ptr %16, align 4
  br label %76

51:                                               ; preds = %47
  %52 = load ptr, ptr %6, align 8
  %53 = load i32, ptr %14, align 4
  %54 = add i32 %53, 4
  %55 = call i32 @tvb_get_ntohl(ptr noundef %52, i32 noundef %54)
  %56 = icmp ne i32 %55, 554869826
  br i1 %56, label %57, label %58

57:                                               ; preds = %51
  store i1 false, ptr %5, align 1
  store i32 1, ptr %16, align 4
  br label %76

58:                                               ; preds = %51
  %59 = load i32, ptr %15, align 4
  %60 = load i32, ptr %13, align 4
  %61 = add i32 %60, 20
  %62 = load i32, ptr %14, align 4
  %63 = add i32 %61, %62
  %64 = icmp ult i32 %59, %63
  br i1 %64, label %65, label %66

65:                                               ; preds = %58
  store i1 false, ptr %5, align 1
  store i32 1, ptr %16, align 4
  br label %76

66:                                               ; preds = %58
  %67 = load ptr, ptr %7, align 8
  %68 = call ptr @find_or_create_conversation(ptr noundef %67)
  store ptr %68, ptr %10, align 8
  %69 = load ptr, ptr %10, align 8
  %70 = load ptr, ptr @stun_tcp_handle, align 8
  call void @conversation_set_dissector(ptr noundef %69, ptr noundef %70)
  %71 = load ptr, ptr %6, align 8
  %72 = load ptr, ptr %7, align 8
  %73 = load ptr, ptr %8, align 8
  %74 = load ptr, ptr %9, align 8
  %75 = call i32 @dissect_stun_tcp(ptr noundef %71, ptr noundef %72, ptr noundef %73, ptr noundef %74)
  store i1 true, ptr %5, align 1
  store i32 1, ptr %16, align 4
  br label %76

76:                                               ; preds = %66, %65, %57, %50, %46, %21
  call void @llvm.lifetime.end.p0(i64 4, ptr %15) #7
  call void @llvm.lifetime.end.p0(i64 4, ptr %14) #7
  call void @llvm.lifetime.end.p0(i64 4, ptr %13) #7
  call void @llvm.lifetime.end.p0(i64 2, ptr %12) #7
  call void @llvm.lifetime.end.p0(i64 4, ptr %11) #7
  call void @llvm.lifetime.end.p0(i64 8, ptr %10) #7
  %77 = load i1, ptr %5, align 1
  ret i1 %77
}