; Function Attrs: null_pointer_is_valid sspstrong uwtable
define internal noundef zeroext i1 @dissect_stun_heur_tcp(ptr noundef %0, ptr noundef %1, ptr noundef %2, ptr noundef %3) #0 {
  %5 = tail call i32 @tvb_captured_length(ptr noundef %0)
  %6 = icmp ult i32 %5, 4
  br i1 %6, label %30, label %7

7:                                                ; preds = %4
  %8 = tail call i32 @tvb_reported_length(ptr noundef %0)
  %9 = icmp ugt i32 %5, 9
  br i1 %9, label %10, label %13

10:                                               ; preds = %7
  %11 = tail call i32 @tvb_get_ntohl(ptr noundef %0, i32 noundef 6)
  %12 = icmp eq i32 %11, 554869826
  %spec.select = select i1 %12, i32 2, i32 0
  br label %13

13:                                               ; preds = %10, %7
  %.022 = phi i32 [ 0, %7 ], [ %spec.select, %10 ]
  %14 = tail call zeroext i16 @tvb_get_ntohs(ptr noundef %0, i32 noundef %.022)
  %15 = add nuw nsw i32 %.022, 2
  %16 = tail call zeroext i16 @tvb_get_ntohs(ptr noundef %0, i32 noundef %15)
  %17 = zext i16 %16 to i32
  %.not = icmp ugt i16 %14, 16383
  %18 = icmp ult i32 %5, 20
  %or.cond = or i1 %18, %.not
  br i1 %or.cond, label %30, label %19

19:                                               ; preds = %13
  %20 = or disjoint i32 %.022, 4
  %21 = tail call i32 @tvb_get_ntohl(ptr noundef %0, i32 noundef %20)
  %.not24 = icmp eq i32 %21, 554869826
  br i1 %.not24, label %22, label %30

22:                                               ; preds = %19
  %23 = or disjoint i32 %.022, 20
  %24 = add nuw nsw i32 %23, %17
  %25 = icmp ult i32 %8, %24
  br i1 %25, label %30, label %26

26:                                               ; preds = %22
  %27 = tail call ptr @find_or_create_conversation(ptr noundef %1)
  %28 = load ptr, ptr @stun_tcp_handle, align 8
  tail call void @conversation_set_dissector(ptr noundef %27, ptr noundef %28)
  tail call void @tcp_dissect_pdus(ptr noundef %0, ptr noundef %1, ptr noundef %2, i1 noundef zeroext true, i32 noundef 4, ptr noundef nonnull @get_stun_message_len, ptr noundef nonnull @dissect_stun_tcp_pdu, ptr noundef %3)
  %29 = tail call i32 @tvb_reported_length(ptr noundef %0)
  br label %30

30:                                               ; preds = %22, %19, %13, %4, %26
  %.0 = phi i1 [ true, %26 ], [ false, %4 ], [ false, %13 ], [ false, %19 ], [ false, %22 ]
  ret i1 %.0
}